target datalayout = "e-m:e-p270:32:32-p271:32:32-p272:64:64-i64:64-i128:128-f80:128-n8:16:32:64-S128"
target triple = "x86_64-pc-linux-gnu"

%struct._lv_global_t = type { i8, i8, %struct.lv_ll_t, ptr, ptr, %struct.lv_ll_t, i8, i32, i32, ptr, %struct.lv_ll_t, ptr, %struct.lv_ll_t, ptr, ptr, i32, ptr, i8, i32, i32, ptr, i32, %struct.lv_timer_state_t, %struct.lv_anim_state_t, %struct.lv_tick_state_t, %struct._lv_draw_buf_handlers_t, %struct._lv_draw_buf_handlers_t, %struct._lv_draw_buf_handlers_t, %struct.lv_ll_t, ptr, ptr, %struct.lv_draw_global_info_t, [4 x %struct.lv_draw_sw_mask_radius_circle_dsc_t], ptr, ptr, ptr, %struct.lv_tlsf_state_t, %struct.lv_ll_t, ptr, ptr, %struct.lv_style_t, i64, ptr, i32, ptr }
%struct.lv_timer_state_t = type { %struct.lv_ll_t, i8, i8, i8, i8, i32, i8, i32, i32, i32, i32, ptr, ptr }
%struct.lv_anim_state_t = type { i8, i8, ptr, %struct.lv_ll_t }
%struct.lv_tick_state_t = type { i32, i8, ptr, ptr }
%struct._lv_draw_buf_handlers_t = type { ptr, ptr, ptr, ptr, ptr, ptr }
%struct.lv_draw_global_info_t = type { ptr, i32, i32, i32, i32, i8 }
%struct.lv_draw_sw_mask_radius_circle_dsc_t = type { ptr, ptr, ptr, ptr, i32, i32, i32 }
%struct.lv_tlsf_state_t = type { ptr, i64, i64, %struct.lv_ll_t }
%struct.lv_ll_t = type { i32, ptr, ptr }
%struct.lv_style_t = type { ptr, i32, i8 }
%struct._lv_indev_t = type { i32, ptr, i32, i32, i32, i8, i32, i32, ptr, ptr, ptr, ptr, i8, i8, i8, i8, i16, i16, i32, %struct.anon, %struct.anon.0, ptr, ptr, ptr, %struct.lv_event_list_t, ptr, i32, ptr }
%struct.anon = type { %struct.lv_point_t, %struct.lv_point_t, %struct.lv_point_t, %struct.lv_point_t, %struct.lv_point_t, %struct.lv_point_t, %struct.lv_point_t, ptr, ptr, ptr, ptr, ptr, %struct.lv_area_t, %struct.lv_point_t, i32, i8, %struct.lv_point_t, i32, i16 }
%struct.lv_area_t = type { i32, i32, i32, i32 }
%struct.lv_point_t = type { i32, i32 }
%struct.anon.0 = type { i32, i32 }
%struct.lv_event_list_t = type { %struct._lv_array_t, i8 }
%struct._lv_array_t = type { ptr, i32, i32, i32, i8 }
%struct._lv_event_t = type { ptr, ptr, i32, ptr, ptr, ptr, i8 }

@lv_global = external global %struct._lv_global_t, align 8

; Function Attrs: inlinehint nounwind uwtable
define internal void @lv_memzero(ptr noundef %0, i64 noundef %1) #3 {
  %3 = alloca ptr, align 8
  %4 = alloca i64, align 8
  store ptr %0, ptr %3, align 8, !tbaa !35
  store i64 %1, ptr %4, align 8, !tbaa !36
  %5 = load ptr, ptr %3, align 8, !tbaa !35
  %6 = load i64, ptr %4, align 8, !tbaa !36
  call void @lv_memset(ptr noundef %5, i8 noundef zeroext 0, i64 noundef %6)
  ret void
}

; Function Attrs: nounwind uwtable
define i32 @lv_indev_send_event(ptr noundef %0, i32 noundef %1, ptr noundef %2) #0 {
  %4 = alloca i32, align 4
  %5 = alloca ptr, align 8
  %6 = alloca i32, align 4
  %7 = alloca ptr, align 8
  %8 = alloca %struct._lv_event_t, align 8
  %9 = alloca i32, align 4
  %10 = alloca i32, align 4
  store ptr %0, ptr %5, align 8, !tbaa !8
  store i32 %1, ptr %6, align 4, !tbaa !41
  store ptr %2, ptr %7, align 8, !tbaa !35
  call void @llvm.lifetime.start.p0(i64 56, ptr %8) #6
  call void @lv_memzero(ptr noundef %8, i64 noundef 56)
  %11 = load i32, ptr %6, align 4, !tbaa !41
  %12 = getelementptr inbounds nuw %struct._lv_event_t, ptr %8, i32 0, i32 2
  store i32 %11, ptr %12, align 8, !tbaa !42
  %13 = load ptr, ptr %5, align 8, !tbaa !8
  %14 = getelementptr inbounds nuw %struct._lv_event_t, ptr %8, i32 0, i32 0
  store ptr %13, ptr %14, align 8, !tbaa !45
  %15 = load ptr, ptr %5, align 8, !tbaa !8
  %16 = getelementptr inbounds nuw %struct._lv_event_t, ptr %8, i32 0, i32 1
  store ptr %15, ptr %16, align 8, !tbaa !46
  %17 = load ptr, ptr %7, align 8, !tbaa !35
  %18 = getelementptr inbounds nuw %struct._lv_event_t, ptr %8, i32 0, i32 4
  store ptr %17, ptr %18, align 8, !tbaa !47
  call void @llvm.lifetime.start.p0(i64 4, ptr %9) #6
  %19 = load ptr, ptr %5, align 8, !tbaa !8
  %20 = getelementptr inbounds nuw %struct._lv_indev_t, ptr %19, i32 0, i32 24
  %21 = call i32 @lv_event_send(ptr noundef %20, ptr noundef %8, i1 noundef zeroext true)
  store i32 %21, ptr %9, align 4, !tbaa !41
  %22 = load i32, ptr %9, align 4, !tbaa !41
  %23 = icmp ne i32 %22, 1
  br i1 %23, label %24, label %26

24:                                               ; preds = %3
  %25 = load i32, ptr %9, align 4, !tbaa !41
  store i32 %25, ptr %4, align 4
  store i32 1, ptr %10, align 4
  br label %36

26:                                               ; preds = %3
  %27 = load ptr, ptr %5, align 8, !tbaa !8
  %28 = getelementptr inbounds nuw %struct._lv_indev_t, ptr %27, i32 0, i32 24
  %29 = call i32 @lv_event_send(ptr noundef %28, ptr noundef %8, i1 noundef zeroext false)
  store i32 %29, ptr %9, align 4, !tbaa !41
  %30 = load i32, ptr %9, align 4, !tbaa !41
  %31 = icmp ne i32 %30, 1
  br i1 %31, label %32, label %34

32:                                               ; preds = %26
  %33 = load i32, ptr %9, align 4, !tbaa !41
  store i32 %33, ptr %4, align 4
  store i32 1, ptr %10, align 4
  br label %36

34:                                               ; preds = %26
  %35 = load i32, ptr %9, align 4, !tbaa !41
  store i32 %35, ptr %4, align 4
  store i32 1, ptr %10, align 4
  br label %36

36:                                               ; preds = %34, %32, %24
  call void @llvm.lifetime.end.p0(i64 4, ptr %9) #6
  call void @llvm.lifetime.end.p0(i64 56, ptr %8) #6
  %37 = load i32, ptr %4, align 4
  ret i32 %37
}

; Function Attrs: nounwind uwtable
define internal void @indev_reset_core(ptr noundef %0, ptr noundef %1) #0 {
  %3 = alloca ptr, align 8
  %4 = alloca ptr, align 8
  %5 = alloca ptr, align 8
  %6 = alloca ptr, align 8
  store ptr %0, ptr %3, align 8, !tbaa !8
  store ptr %1, ptr %4, align 8, !tbaa !131
  call void @llvm.lifetime.start.p0(i64 8, ptr %5) #6
  store ptr null, ptr %5, align 8, !tbaa !131
  call void @llvm.lifetime.start.p0(i64 8, ptr %6) #6
  store ptr null, ptr %6, align 8, !tbaa !131
  %7 = load ptr, ptr %3, align 8, !tbaa !8
  %8 = getelementptr inbounds nuw %struct._lv_indev_t, ptr %7, i32 0, i32 5
  %9 = load i8, ptr %8, align 4
  %10 = and i8 %9, -3
  %11 = or i8 %10, 2
  store i8 %11, ptr %8, align 4
  %12 = load ptr, ptr getelementptr inbounds nuw (%struct._lv_global_t, ptr @lv_global, i32 0, i32 13), align 8, !tbaa !48
  %13 = load ptr, ptr %3, align 8, !tbaa !8
  %14 = icmp eq ptr %12, %13
  br i1 %14, label %15, label %16

15:                                               ; preds = %2
  store ptr null, ptr getelementptr inbounds nuw (%struct._lv_global_t, ptr @lv_global, i32 0, i32 14), align 8, !tbaa !76
  br label %16

16:                                               ; preds = %15, %2
  %17 = load ptr, ptr %3, align 8, !tbaa !8
  %18 = getelementptr inbounds nuw %struct._lv_indev_t, ptr %17, i32 0, i32 0
  %19 = load i32, ptr %18, align 8, !tbaa !26
  %20 = icmp eq i32 %19, 1
  br i1 %20, label %26, label %21

21:                                               ; preds = %16
  %22 = load ptr, ptr %3, align 8, !tbaa !8
  %23 = getelementptr inbounds nuw %struct._lv_indev_t, ptr %22, i32 0, i32 0
  %24 = load i32, ptr %23, align 8, !tbaa !26
  %25 = icmp eq i32 %24, 2
  br i1 %25, label %26, label %131

26:                                               ; preds = %21, %16
  %27 = load ptr, ptr %4, align 8, !tbaa !131
  %28 = icmp eq ptr %27, null
  br i1 %28, label %36, label %29

29:                                               ; preds = %26
  %30 = load ptr, ptr %3, align 8, !tbaa !8
  %31 = getelementptr inbounds nuw %struct._lv_indev_t, ptr %30, i32 0, i32 19
  %32 = getelementptr inbounds nuw %struct.anon, ptr %31, i32 0, i32 10
  %33 = load ptr, ptr %32, align 8, !tbaa !133
  %34 = load ptr, ptr %4, align 8, !tbaa !131
  %35 = icmp eq ptr %33, %34
  br i1 %35, label %36, label %40

36:                                               ; preds = %29, %26
  %37 = load ptr, ptr %3, align 8, !tbaa !8
  %38 = getelementptr inbounds nuw %struct._lv_indev_t, ptr %37, i32 0, i32 19
  %39 = getelementptr inbounds nuw %struct.anon, ptr %38, i32 0, i32 10
  store ptr null, ptr %39, align 8, !tbaa !133
  br label %40

40:                                               ; preds = %36, %29
  %41 = load ptr, ptr %4, align 8, !tbaa !131
  %42 = icmp eq ptr %41, null
  br i1 %42, label %50, label %43

43:                                               ; preds = %40
  %44 = load ptr, ptr %3, align 8, !tbaa !8
  %45 = getelementptr inbounds nuw %struct._lv_indev_t, ptr %44, i32 0, i32 19
  %46 = getelementptr inbounds nuw %struct.anon, ptr %45, i32 0, i32 7
  %47 = load ptr, ptr %46, align 8, !tbaa !83
  %48 = load ptr, ptr %4, align 8, !tbaa !131
  %49 = icmp eq ptr %47, %48
  br i1 %49, label %50, label %71

50:                                               ; preds = %43, %40
  %51 = load ptr, ptr %3, align 8, !tbaa !8
  %52 = getelementptr inbounds nuw %struct._lv_indev_t, ptr %51, i32 0, i32 19
  %53 = getelementptr inbounds nuw %struct.anon, ptr %52, i32 0, i32 7
  %54 = load ptr, ptr %53, align 8, !tbaa !83
  %55 = icmp ne ptr %54, null
  br i1 %55, label %56, label %70

56:                                               ; preds = %50
  %57 = load ptr, ptr %3, align 8, !tbaa !8
  %58 = getelementptr inbounds nuw %struct._lv_indev_t, ptr %57, i32 0, i32 19
  %59 = getelementptr inbounds nuw %struct.anon, ptr %58, i32 0, i32 7
  %60 = load ptr, ptr %59, align 8, !tbaa !83
  store ptr %60, ptr %5, align 8, !tbaa !131
  %61 = load ptr, ptr %3, align 8, !tbaa !8
  %62 = getelementptr inbounds nuw %struct._lv_indev_t, ptr %61, i32 0, i32 19
  %63 = getelementptr inbounds nuw %struct.anon, ptr %62, i32 0, i32 7
  store ptr null, ptr %63, align 8, !tbaa !83
  %64 = load ptr, ptr %5, align 8, !tbaa !131
  %65 = load ptr, ptr %3, align 8, !tbaa !8
  %66 = call i32 @lv_obj_send_event(ptr noundef %64, i32 noundef 23, ptr noundef %65)
  %67 = load ptr, ptr %3, align 8, !tbaa !8
  %68 = load ptr, ptr %5, align 8, !tbaa !131
  %69 = call i32 @lv_indev_send_event(ptr noundef %67, i32 noundef 23, ptr noundef %68)
  store ptr null, ptr %5, align 8, !tbaa !131
  br label %70

70:                                               ; preds = %56, %50
  br label %71

71:                                               ; preds = %70, %43
  %72 = load ptr, ptr %4, align 8, !tbaa !131
  %73 = icmp eq ptr %72, null
  br i1 %73, label %81, label %74

74:                                               ; preds = %71
  %75 = load ptr, ptr %3, align 8, !tbaa !8
  %76 = getelementptr inbounds nuw %struct._lv_indev_t, ptr %75, i32 0, i32 19
  %77 = getelementptr inbounds nuw %struct.anon, ptr %76, i32 0, i32 8
  %78 = load ptr, ptr %77, align 8, !tbaa !84
  %79 = load ptr, ptr %4, align 8, !tbaa !131
  %80 = icmp eq ptr %78, %79
  br i1 %80, label %81, label %85

81:                                               ; preds = %74, %71
  %82 = load ptr, ptr %3, align 8, !tbaa !8
  %83 = getelementptr inbounds nuw %struct._lv_indev_t, ptr %82, i32 0, i32 19
  %84 = getelementptr inbounds nuw %struct.anon, ptr %83, i32 0, i32 8
  store ptr null, ptr %84, align 8, !tbaa !84
  br label %85

85:                                               ; preds = %81, %74
  %86 = load ptr, ptr %4, align 8, !tbaa !131
  %87 = icmp eq ptr %86, null
  br i1 %87, label %95, label %88

88:                                               ; preds = %85
  %89 = load ptr, ptr %3, align 8, !tbaa !8
  %90 = getelementptr inbounds nuw %struct._lv_indev_t, ptr %89, i32 0, i32 19
  %91 = getelementptr inbounds nuw %struct.anon, ptr %90, i32 0, i32 9
  %92 = load ptr, ptr %91, align 8, !tbaa !85
  %93 = load ptr, ptr %4, align 8, !tbaa !131
  %94 = icmp eq ptr %92, %93
  br i1 %94, label %95, label %116

95:                                               ; preds = %88, %85
  %96 = load ptr, ptr %3, align 8, !tbaa !8
  %97 = getelementptr inbounds nuw %struct._lv_indev_t, ptr %96, i32 0, i32 19
  %98 = getelementptr inbounds nuw %struct.anon, ptr %97, i32 0, i32 9
  %99 = load ptr, ptr %98, align 8, !tbaa !85
  %100 = icmp ne ptr %99, null
  br i1 %100, label %101, label %115

101:                                              ; preds = %95
  %102 = load ptr, ptr %3, align 8, !tbaa !8
  %103 = getelementptr inbounds nuw %struct._lv_indev_t, ptr %102, i32 0, i32 19
  %104 = getelementptr inbounds nuw %struct.anon, ptr %103, i32 0, i32 9
  %105 = load ptr, ptr %104, align 8, !tbaa !85
  store ptr %105, ptr %6, align 8, !tbaa !131
  %106 = load ptr, ptr %3, align 8, !tbaa !8
  %107 = getelementptr inbounds nuw %struct._lv_indev_t, ptr %106, i32 0, i32 19
  %108 = getelementptr inbounds nuw %struct.anon, ptr %107, i32 0, i32 9
  store ptr null, ptr %108, align 8, !tbaa !85
  %109 = load ptr, ptr %6, align 8, !tbaa !131
  %110 = load ptr, ptr %3, align 8, !tbaa !8
  %111 = call i32 @lv_obj_send_event(ptr noundef %109, i32 noundef 23, ptr noundef %110)
  %112 = load ptr, ptr %3, align 8, !tbaa !8
  %113 = load ptr, ptr %5, align 8, !tbaa !131
  %114 = call i32 @lv_indev_send_event(ptr noundef %112, i32 noundef 23, ptr noundef %113)
  store ptr null, ptr %6, align 8, !tbaa !131
  br label %115

115:                                              ; preds = %101, %95
  br label %116

116:                                              ; preds = %115, %88
  %117 = load ptr, ptr %4, align 8, !tbaa !131
  %118 = icmp eq ptr %117, null
  br i1 %118, label %126, label %119

119:                                              ; preds = %116
  %120 = load ptr, ptr %3, align 8, !tbaa !8
  %121 = getelementptr inbounds nuw %struct._lv_indev_t, ptr %120, i32 0, i32 19
  %122 = getelementptr inbounds nuw %struct.anon, ptr %121, i32 0, i32 11
  %123 = load ptr, ptr %122, align 8, !tbaa !86
  %124 = load ptr, ptr %4, align 8, !tbaa !131
  %125 = icmp eq ptr %123, %124
  br i1 %125, label %126, label %130

126:                                              ; preds = %119, %116
  %127 = load ptr, ptr %3, align 8, !tbaa !8
  %128 = getelementptr inbounds nuw %struct._lv_indev_t, ptr %127, i32 0, i32 19
  %129 = getelementptr inbounds nuw %struct.anon, ptr %128, i32 0, i32 11
  store ptr null, ptr %129, align 8, !tbaa !86
  br label %130

130:                                              ; preds = %126, %119
  br label %131

131:                                              ; preds = %130, %21
  call void @llvm.lifetime.end.p0(i64 8, ptr %6) #6
  call void @llvm.lifetime.end.p0(i64 8, ptr %5) #6
  ret void
}