; Function Attrs: nounwind uwtable
define internal fastcc void @indev_reset_core(ptr noundef nonnull %0, ptr noundef readnone captures(address) %1) unnamed_addr #0 {
  %3 = alloca %struct._lv_event_t, align 8
  %4 = alloca %struct._lv_event_t, align 8
  %5 = getelementptr inbounds nuw i8, ptr %0, i64 28
  %6 = load i8, ptr %5, align 4
  %7 = or i8 %6, 2
  store i8 %7, ptr %5, align 4
  %8 = load ptr, ptr getelementptr inbounds nuw (i8, ptr @lv_global, i64 152), align 8, !tbaa !40
  %9 = icmp eq ptr %8, %0
  br i1 %9, label %10, label %11

10:                                               ; preds = %2
  store ptr null, ptr getelementptr inbounds nuw (i8, ptr @lv_global, i64 160), align 8, !tbaa !66
  br label %11

11:                                               ; preds = %10, %2
  %12 = load i32, ptr %0, align 8, !tbaa !23
  %.off = add i32 %12, -1
  %switch = icmp ult i32 %.off, 2
  br i1 %switch, label %13, label %62

13:                                               ; preds = %11
  %14 = icmp eq ptr %1, null
  %15 = getelementptr inbounds nuw i8, ptr %0, i64 168
  br i1 %14, label %.thread43, label %16

.thread43:                                        ; preds = %13
  store ptr null, ptr %15, align 8, !tbaa !101
  %.phi.trans.insert = getelementptr inbounds nuw i8, ptr %0, i64 144
  %.pre = load ptr, ptr %.phi.trans.insert, align 8, !tbaa !104
  br label %23

16:                                               ; preds = %13
  %17 = load ptr, ptr %15, align 8, !tbaa !101
  %18 = icmp eq ptr %17, %1
  br i1 %18, label %19, label %.thread

19:                                               ; preds = %16
  store ptr null, ptr %15, align 8, !tbaa !101
  br label %.thread

.thread:                                          ; preds = %16, %19
  %20 = getelementptr inbounds nuw i8, ptr %0, i64 144
  %21 = load ptr, ptr %20, align 8, !tbaa !104
  %22 = icmp eq ptr %21, %1
  br i1 %22, label %23, label %.thread44

23:                                               ; preds = %.thread43, %.thread
  %24 = phi ptr [ %.pre, %.thread43 ], [ %21, %.thread ]
  %.not = icmp eq ptr %24, null
  br i1 %.not, label %35, label %25

25:                                               ; preds = %23
  %26 = getelementptr inbounds nuw i8, ptr %0, i64 144
  store ptr null, ptr %26, align 8, !tbaa !104
  %27 = tail call i32 @lv_obj_send_event(ptr noundef nonnull %24, i32 noundef 23, ptr noundef nonnull %0) #11
  call void @llvm.lifetime.start.p0(i64 56, ptr nonnull %4) #11
  call void @lv_memset(ptr noundef nonnull %4, i8 noundef zeroext 0, i64 noundef 56) #11
  %28 = getelementptr inbounds nuw i8, ptr %4, i64 16
  store i32 23, ptr %28, align 8, !tbaa !34
  store ptr %0, ptr %4, align 8, !tbaa !37
  %29 = getelementptr inbounds nuw i8, ptr %4, i64 8
  store ptr %0, ptr %29, align 8, !tbaa !38
  %30 = getelementptr inbounds nuw i8, ptr %4, i64 32
  store ptr %24, ptr %30, align 8, !tbaa !39
  %31 = getelementptr inbounds nuw i8, ptr %0, i64 264
  %32 = call i32 @lv_event_send(ptr noundef nonnull %31, ptr noundef nonnull %4, i1 noundef zeroext true) #11
  %.not.i = icmp eq i32 %32, 1
  br i1 %.not.i, label %33, label %lv_indev_send_event.exit

33:                                               ; preds = %25
  %34 = call i32 @lv_event_send(ptr noundef nonnull %31, ptr noundef nonnull %4, i1 noundef zeroext false) #11
  br label %lv_indev_send_event.exit

lv_indev_send_event.exit:                         ; preds = %25, %33
  call void @llvm.lifetime.end.p0(i64 56, ptr nonnull %4) #11
  br label %35

35:                                               ; preds = %23, %lv_indev_send_event.exit
  br i1 %14, label %.thread46, label %.thread44

.thread46:                                        ; preds = %35
  %36 = getelementptr inbounds nuw i8, ptr %0, i64 152
  store ptr null, ptr %36, align 8, !tbaa !123
  %.phi.trans.insert48 = getelementptr inbounds nuw i8, ptr %0, i64 160
  %.pre49 = load ptr, ptr %.phi.trans.insert48, align 8, !tbaa !61
  br label %44

.thread44:                                        ; preds = %.thread, %35
  %37 = getelementptr inbounds nuw i8, ptr %0, i64 152
  %38 = load ptr, ptr %37, align 8, !tbaa !123
  %39 = icmp eq ptr %38, %1
  br i1 %39, label %40, label %.thread45

40:                                               ; preds = %.thread44
  store ptr null, ptr %37, align 8, !tbaa !123
  br label %.thread45

.thread45:                                        ; preds = %.thread44, %40
  %41 = getelementptr inbounds nuw i8, ptr %0, i64 160
  %42 = load ptr, ptr %41, align 8, !tbaa !61
  %43 = icmp eq ptr %42, %1
  br i1 %43, label %44, label %.thread47

44:                                               ; preds = %.thread46, %.thread45
  %45 = phi ptr [ %.pre49, %.thread46 ], [ %42, %.thread45 ]
  %.not39 = icmp eq ptr %45, null
  br i1 %.not39, label %56, label %46

46:                                               ; preds = %44
  %47 = getelementptr inbounds nuw i8, ptr %0, i64 160
  store ptr null, ptr %47, align 8, !tbaa !61
  %48 = call i32 @lv_obj_send_event(ptr noundef nonnull %45, i32 noundef 23, ptr noundef nonnull %0) #11
  call void @llvm.lifetime.start.p0(i64 56, ptr nonnull %3) #11
  call void @lv_memset(ptr noundef nonnull %3, i8 noundef zeroext 0, i64 noundef 56) #11
  %49 = getelementptr inbounds nuw i8, ptr %3, i64 16
  store i32 23, ptr %49, align 8, !tbaa !34
  store ptr %0, ptr %3, align 8, !tbaa !37
  %50 = getelementptr inbounds nuw i8, ptr %3, i64 8
  store ptr %0, ptr %50, align 8, !tbaa !38
  %51 = getelementptr inbounds nuw i8, ptr %3, i64 32
  store ptr null, ptr %51, align 8, !tbaa !39
  %52 = getelementptr inbounds nuw i8, ptr %0, i64 264
  %53 = call i32 @lv_event_send(ptr noundef nonnull %52, ptr noundef nonnull %3, i1 noundef zeroext true) #11
  %.not.i40 = icmp eq i32 %53, 1
  br i1 %.not.i40, label %54, label %lv_indev_send_event.exit42

54:                                               ; preds = %46
  %55 = call i32 @lv_event_send(ptr noundef nonnull %52, ptr noundef nonnull %3, i1 noundef zeroext false) #11
  br label %lv_indev_send_event.exit42

lv_indev_send_event.exit42:                       ; preds = %46, %54
  call void @llvm.lifetime.end.p0(i64 56, ptr nonnull %3) #11
  br label %56

56:                                               ; preds = %44, %lv_indev_send_event.exit42
  br i1 %14, label %60, label %.thread47

.thread47:                                        ; preds = %.thread45, %56
  %57 = getelementptr inbounds nuw i8, ptr %0, i64 176
  %58 = load ptr, ptr %57, align 8, !tbaa !56
  %59 = icmp eq ptr %58, %1
  br i1 %59, label %60, label %62

60:                                               ; preds = %.thread47, %56
  %61 = getelementptr inbounds nuw i8, ptr %0, i64 176
  store ptr null, ptr %61, align 8, !tbaa !56
  br label %62

62:                                               ; preds = %11, %.thread47, %60
  ret void
}